; Function Attrs: mustprogress nofree norecurse nosync nounwind willreturn memory(read, inaccessiblemem: none) uwtable
define noundef double @_ZNK18colvar_grid_scalar7entropyEv(ptr noundef nonnull readonly align 8 captures(none) dereferenceable(712) %0) local_unnamed_addr #18 align 2 {
  %2 = getelementptr inbounds nuw i8, ptr %0, i64 384
  %3 = load i64, ptr %2, align 8, !tbaa !358
  %.not = icmp eq i64 %3, 0
  br i1 %.not, label %.preheader, label %.lr.ph

.lr.ph:                                           ; preds = %1
  %4 = getelementptr inbounds nuw i8, ptr %0, i64 392
  %5 = load ptr, ptr %4, align 8, !tbaa !89
  br label %14

.preheader:                                       ; preds = %22, %1
  %.014.lcssa = phi double [ 0.000000e+00, %1 ], [ %.1, %22 ]
  %6 = getelementptr inbounds nuw i8, ptr %0, i64 672
  %7 = getelementptr inbounds nuw i8, ptr %0, i64 680
  %8 = load ptr, ptr %7, align 8, !tbaa !126
  %9 = load ptr, ptr %6, align 8, !tbaa !89
  %.not21 = icmp eq ptr %8, %9
  br i1 %.not21, label %._crit_edge, label %.lr.ph19.preheader

.lr.ph19.preheader:                               ; preds = %.preheader
  %10 = ptrtoint ptr %8 to i64
  %11 = ptrtoint ptr %9 to i64
  %12 = sub i64 %10, %11
  %13 = ashr exact i64 %12, 3
  %umax = tail call i64 @llvm.umax.i64(i64 %13, i64 1)
  br label %.lr.ph19

14:                                               ; preds = %.lr.ph, %22
  %.01316 = phi i64 [ 0, %.lr.ph ], [ %23, %22 ]
  %.01415 = phi double [ 0.000000e+00, %.lr.ph ], [ %.1, %22 ]
  %15 = getelementptr inbounds nuw double, ptr %5, i64 %.01316
  %16 = load double, ptr %15, align 8, !tbaa !90
  %17 = fcmp ogt double %16, 0.000000e+00
  br i1 %17, label %18, label %22

18:                                               ; preds = %14
  %19 = fneg double %16
  %20 = tail call double @llvm.log.f64(double %16), !tbaa !83
  %21 = tail call double @llvm.fmuladd.f64(double %19, double %20, double %.01415)
  br label %22

22:                                               ; preds = %14, %18
  %.1 = phi double [ %21, %18 ], [ %.01415, %14 ]
  %23 = add nuw i64 %.01316, 1
  %exitcond.not = icmp eq i64 %23, %3
  br i1 %exitcond.not, label %.preheader, label %14, !llvm.loop !508

._crit_edge:                                      ; preds = %.lr.ph19, %.preheader
  %.012.lcssa = phi double [ 1.000000e+00, %.preheader ], [ %27, %.lr.ph19 ]
  %24 = fmul double %.014.lcssa, %.012.lcssa
  ret double %24

.lr.ph19:                                         ; preds = %.lr.ph19.preheader, %.lr.ph19
  %.018 = phi i64 [ %28, %.lr.ph19 ], [ 0, %.lr.ph19.preheader ]
  %.01217 = phi double [ %27, %.lr.ph19 ], [ 1.000000e+00, %.lr.ph19.preheader ]
  %25 = getelementptr inbounds nuw double, ptr %9, i64 %.018
  %26 = load double, ptr %25, align 8, !tbaa !90
  %27 = fmul double %.01217, %26
  %28 = add nuw i64 %.018, 1
  %exitcond22.not = icmp eq i64 %28, %umax
  br i1 %exitcond22.not, label %._crit_edge, label %.lr.ph19, !llvm.loop !509
}